target datalayout = "e-m:e-p270:32:32-p271:32:32-p272:64:64-i64:64-i128:128-f80:128-n8:16:32:64-S128"
target triple = "x86_64-unknown-linux-gnu"

%"class.std::__cxx11::basic_string" = type { %"struct.std::__cxx11::basic_string<char>::_Alloc_hider", i64, %union.anon }
%"struct.std::__cxx11::basic_string<char>::_Alloc_hider" = type { ptr }
%union.anon = type { i64, [8 x i8] }

; Function Attrs: mustprogress nounwind uwtable
define dso_local void @_ZN4node2fs8BasenameERKNSt7__cxx1112basic_stringIcSt11char_traitsIcESaIcEEES8_(ptr noalias sret(%"class.std::__cxx11::basic_string") align 8 %agg.result, ptr noundef nonnull align 8 dereferenceable(32) %str, ptr noundef nonnull align 8 dereferenceable(32) %extension) #4 {
entry:
  %result.ptr = alloca ptr, align 8
  %str.addr = alloca ptr, align 8
  %extension.addr = alloca ptr, align 8
  %pos = alloca i64, align 8
  %start_pos = alloca i64, align 8
  %str_size = alloca i64, align 8
  store ptr %agg.result, ptr %result.ptr, align 8
  store ptr %str, ptr %str.addr, align 8
  store ptr %extension, ptr %extension.addr, align 8
  %0 = load ptr, ptr %str.addr, align 8
  %call = call noundef i64 @_ZNKSt7__cxx1112basic_stringIcSt11char_traitsIcESaIcEE12find_last_ofEcm(ptr noundef nonnull align 8 dereferenceable(32) %0, i8 noundef signext 47, i64 noundef -1) #3
  store i64 %call, ptr %pos, align 8
  store i64 0, ptr %start_pos, align 8
  %1 = load ptr, ptr %str.addr, align 8
  %call1 = call noundef i64 @_ZNKSt7__cxx1112basic_stringIcSt11char_traitsIcESaIcEE4sizeEv(ptr noundef nonnull align 8 dereferenceable(32) %1) #3
  store i64 %call1, ptr %str_size, align 8
  %2 = load i64, ptr %pos, align 8
  %cmp = icmp ne i64 %2, -1
  br i1 %cmp, label %if.then, label %if.end

if.then:                                          ; preds = %entry
  %3 = load i64, ptr %pos, align 8
  %add = add i64 %3, 1
  store i64 %add, ptr %start_pos, align 8
  %4 = load i64, ptr %start_pos, align 8
  %5 = load i64, ptr %str_size, align 8
  %sub = sub i64 %5, %4
  store i64 %sub, ptr %str_size, align 8
  br label %if.end

if.end:                                           ; preds = %if.then, %entry
  %6 = load i64, ptr %str_size, align 8
  %7 = load ptr, ptr %extension.addr, align 8
  %call2 = call noundef i64 @_ZNKSt7__cxx1112basic_stringIcSt11char_traitsIcESaIcEE4sizeEv(ptr noundef nonnull align 8 dereferenceable(32) %7) #3
  %cmp3 = icmp uge i64 %6, %call2
  br i1 %cmp3, label %land.lhs.true, label %if.end13

land.lhs.true:                                    ; preds = %if.end
  %8 = load ptr, ptr %str.addr, align 8
  %9 = load ptr, ptr %str.addr, align 8
  %call4 = call noundef i64 @_ZNKSt7__cxx1112basic_stringIcSt11char_traitsIcESaIcEE4sizeEv(ptr noundef nonnull align 8 dereferenceable(32) %9) #3
  %10 = load ptr, ptr %extension.addr, align 8
  %call5 = call noundef i64 @_ZNKSt7__cxx1112basic_stringIcSt11char_traitsIcESaIcEE4sizeEv(ptr noundef nonnull align 8 dereferenceable(32) %10) #3
  %sub6 = sub i64 %call4, %call5
  %11 = load ptr, ptr %extension.addr, align 8
  %call7 = call noundef i64 @_ZNKSt7__cxx1112basic_stringIcSt11char_traitsIcESaIcEE4sizeEv(ptr noundef nonnull align 8 dereferenceable(32) %11) #3
  %12 = load ptr, ptr %extension.addr, align 8
  %call8 = call noundef i32 @_ZNKSt7__cxx1112basic_stringIcSt11char_traitsIcESaIcEE7compareEmmRKS4_(ptr noundef nonnull align 8 dereferenceable(32) %8, i64 noundef %sub6, i64 noundef %call7, ptr noundef nonnull align 8 dereferenceable(32) %12)
  %cmp9 = icmp eq i32 %call8, 0
  br i1 %cmp9, label %if.then10, label %if.end13

if.then10:                                        ; preds = %land.lhs.true
  %13 = load ptr, ptr %extension.addr, align 8
  %call11 = call noundef i64 @_ZNKSt7__cxx1112basic_stringIcSt11char_traitsIcESaIcEE4sizeEv(ptr noundef nonnull align 8 dereferenceable(32) %13) #3
  %14 = load i64, ptr %str_size, align 8
  %sub12 = sub i64 %14, %call11
  store i64 %sub12, ptr %str_size, align 8
  br label %if.end13

if.end13:                                         ; preds = %if.then10, %land.lhs.true, %if.end
  %15 = load ptr, ptr %str.addr, align 8
  %16 = load i64, ptr %start_pos, align 8
  %17 = load i64, ptr %str_size, align 8
  call void @_ZNKSt7__cxx1112basic_stringIcSt11char_traitsIcESaIcEE6substrEmm(ptr sret(%"class.std::__cxx11::basic_string") align 8 %agg.result, ptr noundef nonnull align 8 dereferenceable(32) %15, i64 noundef %16, i64 noundef %17)
  ret void
}