; Function Attrs: mustprogress nounwind uwtable
define dso_local void @_ZN4node2fs8BasenameERKNSt7__cxx1112basic_stringIcSt11char_traitsIcESaIcEEES8_(ptr noalias sret(%"class.std::__cxx11::basic_string") align 8 %agg.result, ptr noundef nonnull align 8 dereferenceable(32) %str, ptr noundef nonnull align 8 dereferenceable(32) %extension) local_unnamed_addr #3 {
entry:
  %call = tail call noundef i64 @_ZNKSt7__cxx1112basic_stringIcSt11char_traitsIcESaIcEE12find_last_ofEcm(ptr noundef nonnull align 8 dereferenceable(32) %str, i8 noundef signext 47, i64 noundef -1) #30
  %call1 = tail call noundef i64 @_ZNKSt7__cxx1112basic_stringIcSt11char_traitsIcESaIcEE4sizeEv(ptr noundef nonnull align 8 dereferenceable(32) %str) #30
  %add = add i64 %call, 1
  %sub = sub i64 %call1, %add
  %call2 = tail call noundef i64 @_ZNKSt7__cxx1112basic_stringIcSt11char_traitsIcESaIcEE4sizeEv(ptr noundef nonnull align 8 dereferenceable(32) %extension) #30
  %cmp3.not = icmp ult i64 %sub, %call2
  br i1 %cmp3.not, label %if.end13, label %land.lhs.true

land.lhs.true:                                    ; preds = %entry
  %call4 = tail call noundef i64 @_ZNKSt7__cxx1112basic_stringIcSt11char_traitsIcESaIcEE4sizeEv(ptr noundef nonnull align 8 dereferenceable(32) %str) #30
  %call5 = tail call noundef i64 @_ZNKSt7__cxx1112basic_stringIcSt11char_traitsIcESaIcEE4sizeEv(ptr noundef nonnull align 8 dereferenceable(32) %extension) #30
  %sub6 = sub i64 %call4, %call5
  %call7 = tail call noundef i64 @_ZNKSt7__cxx1112basic_stringIcSt11char_traitsIcESaIcEE4sizeEv(ptr noundef nonnull align 8 dereferenceable(32) %extension) #30
  %call8 = tail call noundef i32 @_ZNKSt7__cxx1112basic_stringIcSt11char_traitsIcESaIcEE7compareEmmRKS4_(ptr noundef nonnull align 8 dereferenceable(32) %str, i64 noundef %sub6, i64 noundef %call7, ptr noundef nonnull align 8 dereferenceable(32) %extension) #30
  %cmp9 = icmp eq i32 %call8, 0
  br i1 %cmp9, label %if.then10, label %if.end13

if.then10:                                        ; preds = %land.lhs.true
  %call11 = tail call noundef i64 @_ZNKSt7__cxx1112basic_stringIcSt11char_traitsIcESaIcEE4sizeEv(ptr noundef nonnull align 8 dereferenceable(32) %extension) #30
  %sub12 = sub i64 %sub, %call11
  br label %if.end13

if.end13:                                         ; preds = %if.then10, %land.lhs.true, %entry
  %str_size.1 = phi i64 [ %sub12, %if.then10 ], [ %sub, %land.lhs.true ], [ %sub, %entry ]
  tail call void @_ZNKSt7__cxx1112basic_stringIcSt11char_traitsIcESaIcEE6substrEmm(ptr sret(%"class.std::__cxx11::basic_string") align 8 %agg.result, ptr noundef nonnull align 8 dereferenceable(32) %str, i64 noundef %add, i64 noundef %str_size.1) #30
  ret void
}